ARM GAS  C:\Users\salma\AppData\Local\Temp\ccqSBHx1.s 			page 1


   1              		.syntax unified
   2              		.cpu cortex-m3
   3              		.fpu softvfp
   4              		.eabi_attribute 20, 1
   5              		.eabi_attribute 21, 1
   6              		.eabi_attribute 23, 3
   7              		.eabi_attribute 24, 1
   8              		.eabi_attribute 25, 1
   9              		.eabi_attribute 26, 1
  10              		.eabi_attribute 30, 1
  11              		.eabi_attribute 34, 1
  12              		.eabi_attribute 18, 4
  13              		.thumb
  14              		.syntax unified
  15              		.file	"Cypress_DevBoard.c"
  16              		.text
  17              	.Ltext0:
  18              		.cfi_sections	.debug_frame
  19              		.section	.text.LCD_WriteControlNibble,"ax",%progbits
  20              		.align	2
  21              		.global	LCD_WriteControlNibble
  22              		.thumb
  23              		.thumb_func
  24              		.type	LCD_WriteControlNibble, %function
  25              	LCD_WriteControlNibble:
  26              	.LFB74:
  27              		.file 1 "Cypress_DevBoard.c"
   1:Cypress_DevBoard.c **** #include "project.h"
   2:Cypress_DevBoard.c **** #include "CyLib.h"
   3:Cypress_DevBoard.c **** #include "Cypress_DevBoard.h"
   4:Cypress_DevBoard.c **** 
   5:Cypress_DevBoard.c **** 
   6:Cypress_DevBoard.c **** 
   7:Cypress_DevBoard.c **** ///////////////////////////////////////////////
   8:Cypress_DevBoard.c **** /* LCD (16x2 or 20x4) */
   9:Cypress_DevBoard.c **** ///////////////////////////////////////////////
  10:Cypress_DevBoard.c **** 
  11:Cypress_DevBoard.c **** void init_LCD(void) {    // Función de inicialización del módulo de display (16x2 ó 20x4)
  12:Cypress_DevBoard.c ****     LCD_Write(0xFC);
  13:Cypress_DevBoard.c ****     LCD_Write(0xFF);
  14:Cypress_DevBoard.c ****     LCD_Write(LCD_Read() & (~0xFC));
  15:Cypress_DevBoard.c **** 
  16:Cypress_DevBoard.c ****     /* INIT CODE */
  17:Cypress_DevBoard.c ****     CyDelay(80);                                                        /* Delay 40 ms */
  18:Cypress_DevBoard.c ****     LCD_WriteControlNibble(LCD_DISPLAY_8_BIT_INIT);    /* Selects 8-bit mode */
  19:Cypress_DevBoard.c ****     CyDelay(10);                                                         /* Delay 5 ms */
  20:Cypress_DevBoard.c ****     LCD_WriteControlNibble(LCD_DISPLAY_8_BIT_INIT);    /* Selects 8-bit mode */
  21:Cypress_DevBoard.c ****     CyDelay(30);                                                        /* Delay 15 ms */
  22:Cypress_DevBoard.c ****     LCD_WriteControlNibble(LCD_DISPLAY_8_BIT_INIT);    /* Selects 8-bit mode */
  23:Cypress_DevBoard.c ****     CyDelay(2);                                                         /* Delay 1 ms */
  24:Cypress_DevBoard.c ****     LCD_WriteControlNibble(LCD_DISPLAY_4_BIT_INIT);    /* Selects 4-bit mode */
  25:Cypress_DevBoard.c ****     CyDelay(10);                                                         /* Delay 5 ms */
  26:Cypress_DevBoard.c **** 
  27:Cypress_DevBoard.c ****     LCD_WriteControl(LCD_CURSOR_AUTO_INCR_ON);    /* Incr Cursor After Writes */
  28:Cypress_DevBoard.c ****     LCD_WriteControl(LCD_DISPLAY_CURSOR_ON);      /* Turn Display, Cursor ON */
  29:Cypress_DevBoard.c ****     LCD_WriteControl(LCD_DISPLAY_2_LINES_5x10);   /* 2 Lines by 5x10 Characters */
  30:Cypress_DevBoard.c ****     LCD_WriteControl(LCD_DISPLAY_CURSOR_OFF);     /* Turn Display, Cursor OFF */
ARM GAS  C:\Users\salma\AppData\Local\Temp\ccqSBHx1.s 			page 2


  31:Cypress_DevBoard.c ****     LCD_WriteControl(LCD_CLEAR_DISPLAY);          /* Clear LCD Screen */
  32:Cypress_DevBoard.c ****     LCD_WriteControl(LCD_DISPLAY_ON_CURSOR_OFF);  /* Turn Display ON, Cursor OFF */
  33:Cypress_DevBoard.c ****     LCD_WriteControl(LCD_RESET_CURSOR_POSITION);  /* Set Cursor to 0,0 */
  34:Cypress_DevBoard.c ****     CyDelay(10);
  35:Cypress_DevBoard.c **** }
  36:Cypress_DevBoard.c **** void LCD_ClearDisplay(void) {    // Función de limpieza total de la pantalla
  37:Cypress_DevBoard.c ****     LCD_WriteControl(LCD_CLEAR_DISPLAY);
  38:Cypress_DevBoard.c ****     CyDelay(2);
  39:Cypress_DevBoard.c **** }
  40:Cypress_DevBoard.c **** void LCD_Position(unsigned char row, unsigned char column) {    // Función de posicionamiento de c
  41:Cypress_DevBoard.c **** /*
  42:Cypress_DevBoard.c ****  * row      -> Fila donde va a empezar a escribir       (0-3)
  43:Cypress_DevBoard.c ****  * column   -> Columna donde va a empezar a escribir    (0-15)
  44:Cypress_DevBoard.c **** 
  45:Cypress_DevBoard.c ****  * LCD_Position(1,6);
  46:Cypress_DevBoard.c ****  */
  47:Cypress_DevBoard.c ****     row = (LCD_ROW_MASK & row);
  48:Cypress_DevBoard.c **** 
  49:Cypress_DevBoard.c ****     switch(row) {
  50:Cypress_DevBoard.c ****         case 0:
  51:Cypress_DevBoard.c ****             LCD_WriteControl(LCD_ROW_0_START + (LCD_COLUMN_MASK & column));
  52:Cypress_DevBoard.c ****             break;
  53:Cypress_DevBoard.c ****         case 1:
  54:Cypress_DevBoard.c ****             LCD_WriteControl(LCD_ROW_1_START + (LCD_COLUMN_MASK & column));
  55:Cypress_DevBoard.c ****             break;
  56:Cypress_DevBoard.c ****         case 2:
  57:Cypress_DevBoard.c ****             LCD_WriteControl(LCD_ROW_2_START + (LCD_COLUMN_MASK & column));
  58:Cypress_DevBoard.c ****             break;
  59:Cypress_DevBoard.c ****         case 3:
  60:Cypress_DevBoard.c ****             LCD_WriteControl(LCD_ROW_3_START + (LCD_COLUMN_MASK & column));
  61:Cypress_DevBoard.c ****             break;
  62:Cypress_DevBoard.c ****         default:
  63:Cypress_DevBoard.c ****             break;
  64:Cypress_DevBoard.c ****     }
  65:Cypress_DevBoard.c **** }
  66:Cypress_DevBoard.c **** void LCD_PrintHex8(unsigned int hex8) {    // Función de escritura de número hexadecimal de 8 bit
  67:Cypress_DevBoard.c **** /*
  68:Cypress_DevBoard.c ****  * hex8 -> Número o variable a imprimir en formato hexadecimal
  69:Cypress_DevBoard.c ****  *
  70:Cypress_DevBoard.c ****  * LCD_PrintHex8(0xFE);
  71:Cypress_DevBoard.c ****  * LCD_PrintHex8(254);
  72:Cypress_DevBoard.c ****  * LCD_PrintHex8(x);
  73:Cypress_DevBoard.c ****  */
  74:Cypress_DevBoard.c ****     static unsigned char i;
  75:Cypress_DevBoard.c ****     static unsigned int aux;
  76:Cypress_DevBoard.c ****     static unsigned char shift = 8;
  77:Cypress_DevBoard.c ****     static unsigned char length = 1;
  78:Cypress_DevBoard.c **** 
  79:Cypress_DevBoard.c ****     for(i = 0; i <= length; i++) {
  80:Cypress_DevBoard.c ****         aux = hex8;
  81:Cypress_DevBoard.c ****         if(i < length) {
  82:Cypress_DevBoard.c ****             aux = (aux >> shift);
  83:Cypress_DevBoard.c ****             shift -= 4;
  84:Cypress_DevBoard.c ****         }
  85:Cypress_DevBoard.c ****         aux &= 0x000F;
  86:Cypress_DevBoard.c ****         if(aux < 10) {
  87:Cypress_DevBoard.c ****             LCD_PutChar(aux + LCD_ZERO_CHAR_ASCII);
ARM GAS  C:\Users\salma\AppData\Local\Temp\ccqSBHx1.s 			page 3


  88:Cypress_DevBoard.c ****         }
  89:Cypress_DevBoard.c ****         else {
  90:Cypress_DevBoard.c ****             LCD_PutChar(aux + LCD_LETTER_CHAR_ASCII);
  91:Cypress_DevBoard.c ****         }
  92:Cypress_DevBoard.c ****     }
  93:Cypress_DevBoard.c **** }
  94:Cypress_DevBoard.c **** void LCD_PrintHex16(unsigned int hex16) {    // Función de escritura de número hexadecimal de 16 
  95:Cypress_DevBoard.c **** /*
  96:Cypress_DevBoard.c **** * hex16 -> Número o variable a imprimir en formato hexadecimal
  97:Cypress_DevBoard.c **** *
  98:Cypress_DevBoard.c **** * LCD_PrintHex16(0xFFFE);
  99:Cypress_DevBoard.c **** * LCD_PrintHex16(65534);
 100:Cypress_DevBoard.c **** * LCD_PrintHex16(x);
 101:Cypress_DevBoard.c **** */
 102:Cypress_DevBoard.c ****     static unsigned char i;
 103:Cypress_DevBoard.c ****     static unsigned int aux;
 104:Cypress_DevBoard.c ****     static unsigned char shift = 12;
 105:Cypress_DevBoard.c ****     static unsigned char length = 3;
 106:Cypress_DevBoard.c **** 
 107:Cypress_DevBoard.c ****     for(i = 0; i <= length; i++) {
 108:Cypress_DevBoard.c ****         aux = hex16;
 109:Cypress_DevBoard.c ****         if(i < length) {
 110:Cypress_DevBoard.c ****             aux = (aux >> shift);
 111:Cypress_DevBoard.c ****             shift -= 4;
 112:Cypress_DevBoard.c ****         }
 113:Cypress_DevBoard.c ****         aux &= 0x000F;
 114:Cypress_DevBoard.c ****         if(aux < 10) {
 115:Cypress_DevBoard.c ****             LCD_PutChar(aux + LCD_ZERO_CHAR_ASCII);
 116:Cypress_DevBoard.c ****         }
 117:Cypress_DevBoard.c ****         else {
 118:Cypress_DevBoard.c ****             LCD_PutChar(aux + LCD_LETTER_CHAR_ASCII);
 119:Cypress_DevBoard.c ****         }
 120:Cypress_DevBoard.c ****     }
 121:Cypress_DevBoard.c **** }
 122:Cypress_DevBoard.c **** void LCD_PrintHex(unsigned int hex) {    // Función de escritura de número hexadecimal hasta de 1
 123:Cypress_DevBoard.c **** /*
 124:Cypress_DevBoard.c **** * hex -> Número o variable a imprimir en formato hexadecimal
 125:Cypress_DevBoard.c **** *
 126:Cypress_DevBoard.c **** * LCD_PrintHex(0x01);
 127:Cypress_DevBoard.c **** * LCD_PrintHex(1);
 128:Cypress_DevBoard.c **** * LCD_PrintHex(x);
 129:Cypress_DevBoard.c **** */
 130:Cypress_DevBoard.c ****     static unsigned char i;
 131:Cypress_DevBoard.c ****     static unsigned int aux;
 132:Cypress_DevBoard.c ****     static unsigned char shift;
 133:Cypress_DevBoard.c ****     static unsigned char length;
 134:Cypress_DevBoard.c **** 
 135:Cypress_DevBoard.c ****     if(hex > 4095) {
 136:Cypress_DevBoard.c ****         length = 3;
 137:Cypress_DevBoard.c ****         shift = 12;
 138:Cypress_DevBoard.c ****     }
 139:Cypress_DevBoard.c ****     else {
 140:Cypress_DevBoard.c ****         if(hex > 255) {
 141:Cypress_DevBoard.c ****             length = 2;
 142:Cypress_DevBoard.c ****             shift = 8;
 143:Cypress_DevBoard.c ****         }
 144:Cypress_DevBoard.c ****         else {
ARM GAS  C:\Users\salma\AppData\Local\Temp\ccqSBHx1.s 			page 4


 145:Cypress_DevBoard.c ****             if(hex > 15) {
 146:Cypress_DevBoard.c ****                 length = 1;
 147:Cypress_DevBoard.c ****                 shift = 4;
 148:Cypress_DevBoard.c ****             }
 149:Cypress_DevBoard.c ****             else {
 150:Cypress_DevBoard.c ****                 length = 0;
 151:Cypress_DevBoard.c ****                 shift = 0;
 152:Cypress_DevBoard.c ****             }
 153:Cypress_DevBoard.c ****         }
 154:Cypress_DevBoard.c ****     }
 155:Cypress_DevBoard.c **** 
 156:Cypress_DevBoard.c ****     for(i = 0; i <= length; i++) {
 157:Cypress_DevBoard.c ****         aux = hex;
 158:Cypress_DevBoard.c ****         if(i < length) {
 159:Cypress_DevBoard.c ****             aux = (aux >> shift);
 160:Cypress_DevBoard.c ****             shift -= 4;
 161:Cypress_DevBoard.c ****         }
 162:Cypress_DevBoard.c ****         aux &= 0x000F;
 163:Cypress_DevBoard.c ****         if(aux < 10) {
 164:Cypress_DevBoard.c ****             LCD_PutChar(aux + LCD_ZERO_CHAR_ASCII);
 165:Cypress_DevBoard.c ****         }
 166:Cypress_DevBoard.c ****         else {
 167:Cypress_DevBoard.c ****             LCD_PutChar(aux + LCD_LETTER_CHAR_ASCII);
 168:Cypress_DevBoard.c ****         }
 169:Cypress_DevBoard.c ****     }
 170:Cypress_DevBoard.c **** }
 171:Cypress_DevBoard.c **** void LCD_PrintNumber(unsigned long value) {    // Función de impresión de número decimal de 32 b
 172:Cypress_DevBoard.c **** /*
 173:Cypress_DevBoard.c ****  * value -> Número entero a imprimirse
 174:Cypress_DevBoard.c **** 
 175:Cypress_DevBoard.c ****  * LCD_PrintNumber(5894);
 176:Cypress_DevBoard.c ****  * LCD_PrintNumber(x);
 177:Cypress_DevBoard.c ****  */
 178:Cypress_DevBoard.c ****     static unsigned char tmpDigit;
 179:Cypress_DevBoard.c ****     char number[LCD_NUMBER_OF_REMAINDERS_U32 + 1];
 180:Cypress_DevBoard.c ****     static unsigned char digIndex = LCD_NUMBER_OF_REMAINDERS_U32;
 181:Cypress_DevBoard.c **** 
 182:Cypress_DevBoard.c ****     /* Esta API convertirá un número decimal a string; y este string va a ser
 183:Cypress_DevBoard.c ****      * llenado del fin al inicio. Configurar primero caracter de terminación.
 184:Cypress_DevBoard.c ****      */
 185:Cypress_DevBoard.c ****     number[digIndex] = '\0';
 186:Cypress_DevBoard.c ****     digIndex--;
 187:Cypress_DevBoard.c **** 
 188:Cypress_DevBoard.c ****     /* Cargar éstos en orden inverso */
 189:Cypress_DevBoard.c ****     while(value >= LCD_TEN) {
 190:Cypress_DevBoard.c ****     /* Extraer dígito decimal, indexado por 'digIndex', desde 'value',
 191:Cypress_DevBoard.c ****      * y convertirlo a un caracter tipo ASCII
 192:Cypress_DevBoard.c ****      */
 193:Cypress_DevBoard.c ****         tmpDigit = ((value % LCD_TEN) + LCD_ZERO_CHAR_ASCII);
 194:Cypress_DevBoard.c ****         number[digIndex] = tmpDigit;
 195:Cypress_DevBoard.c ****         value /= LCD_TEN;
 196:Cypress_DevBoard.c ****         digIndex--;
 197:Cypress_DevBoard.c ****     }
 198:Cypress_DevBoard.c **** 
 199:Cypress_DevBoard.c ****     /* Extraer el último dígito decimal 'digIndex', desde 'value',
 200:Cypress_DevBoard.c ****      * y convertirlo a un caracter tipo ASCII
 201:Cypress_DevBoard.c ****      */
ARM GAS  C:\Users\salma\AppData\Local\Temp\ccqSBHx1.s 			page 5


 202:Cypress_DevBoard.c ****     tmpDigit = ((value % LCD_TEN) + LCD_ZERO_CHAR_ASCII);
 203:Cypress_DevBoard.c ****     number[digIndex] = tmpDigit;
 204:Cypress_DevBoard.c **** 
 205:Cypress_DevBoard.c ****     while(digIndex < LCD_TEN) {
 206:Cypress_DevBoard.c ****         LCD_PutChar(number[digIndex]);
 207:Cypress_DevBoard.c ****         digIndex++;
 208:Cypress_DevBoard.c ****     }
 209:Cypress_DevBoard.c **** }
 210:Cypress_DevBoard.c **** void LCD_PrintString(char *text) {    // Función de impresión en pantalla de cadena alfanumérica
 211:Cypress_DevBoard.c **** /*
 212:Cypress_DevBoard.c ****  * text -> Texto entre comillas a imprimir
 213:Cypress_DevBoard.c **** 
 214:Cypress_DevBoard.c ****  * LCD_PrintString("Texas DevBoard");
 215:Cypress_DevBoard.c ****  */
 216:Cypress_DevBoard.c ****     char *c;
 217:Cypress_DevBoard.c **** 
 218:Cypress_DevBoard.c ****     c = text;
 219:Cypress_DevBoard.c ****     while((c != 0) && (*c != 0)) {
 220:Cypress_DevBoard.c ****         LCD_WriteData(*c);
 221:Cypress_DevBoard.c ****         c++;
 222:Cypress_DevBoard.c ****     }
 223:Cypress_DevBoard.c **** }
 224:Cypress_DevBoard.c **** void LCD_PutChar(unsigned char character) {    // Función de impresión de caracter simple
 225:Cypress_DevBoard.c **** /*
 226:Cypress_DevBoard.c ****  * character -> Caracter simple a imprimir
 227:Cypress_DevBoard.c **** 
 228:Cypress_DevBoard.c ****  * LCD_PutChar('°');
 229:Cypress_DevBoard.c ****  * LCD_PutChar(0xDF);
 230:Cypress_DevBoard.c ****  */
 231:Cypress_DevBoard.c ****     LCD_WriteData(character);
 232:Cypress_DevBoard.c **** }
 233:Cypress_DevBoard.c **** void LCD_WriteControl(unsigned char cByte) {
 234:Cypress_DevBoard.c ****     static unsigned char nibble;
 235:Cypress_DevBoard.c **** 
 236:Cypress_DevBoard.c ****     //delay_ms(10); // 10
 237:Cypress_DevBoard.c ****     nibble = cByte >> LCD_NIBBLE_SHIFT;
 238:Cypress_DevBoard.c **** 
 239:Cypress_DevBoard.c ****     /* Escribir nibble más significativo */
 240:Cypress_DevBoard.c ****     LCD_WriteControlNibble(nibble);
 241:Cypress_DevBoard.c ****     nibble = cByte & LCD_NIBBLE_MASK;
 242:Cypress_DevBoard.c **** 
 243:Cypress_DevBoard.c ****     /* Escribir nibble menos significativo */
 244:Cypress_DevBoard.c ****     LCD_WriteControlNibble(nibble);
 245:Cypress_DevBoard.c ****     //delay_ms(5); // 5
 246:Cypress_DevBoard.c **** }
 247:Cypress_DevBoard.c **** void LCD_WriteData(unsigned char dByte) {
 248:Cypress_DevBoard.c ****     static unsigned char nibble;
 249:Cypress_DevBoard.c **** 
 250:Cypress_DevBoard.c ****     //delay_ms(10); // 10
 251:Cypress_DevBoard.c ****     nibble = dByte >> LCD_NIBBLE_SHIFT;
 252:Cypress_DevBoard.c **** 
 253:Cypress_DevBoard.c ****     /* Escribir nibble más significativo */
 254:Cypress_DevBoard.c ****     LCD_WriteDataNibble(nibble);
 255:Cypress_DevBoard.c ****     nibble = dByte & LCD_NIBBLE_MASK;
 256:Cypress_DevBoard.c **** 
 257:Cypress_DevBoard.c ****     /* Escribir nibble menos significativo */
 258:Cypress_DevBoard.c ****     LCD_WriteDataNibble(nibble);
ARM GAS  C:\Users\salma\AppData\Local\Temp\ccqSBHx1.s 			page 6


 259:Cypress_DevBoard.c ****     //delay_ms(5); // 5
 260:Cypress_DevBoard.c **** }
 261:Cypress_DevBoard.c **** void LCD_WriteControlNibble(unsigned char nibble) {
  28              		.loc 1 261 0
  29              		.cfi_startproc
  30              		@ args = 0, pretend = 0, frame = 0
  31              		@ frame_needed = 0, uses_anonymous_args = 0
  32              	.LVL0:
  33 0000 08B5     		push	{r3, lr}
  34              		.cfi_def_cfa_offset 8
  35              		.cfi_offset 3, -8
  36              		.cfi_offset 14, -4
 262:Cypress_DevBoard.c ****     static unsigned char dPort = 0x00;
 263:Cypress_DevBoard.c **** 
 264:Cypress_DevBoard.c ****     dPort = (nibble << LCD_NIBBLE_SHIFT);
  37              		.loc 1 264 0
  38 0002 0001     		lsls	r0, r0, #4
  39              	.LVL1:
  40 0004 C0B2     		uxtb	r0, r0
 265:Cypress_DevBoard.c ****     dPort &= (~RS);
 266:Cypress_DevBoard.c **** 
 267:Cypress_DevBoard.c ****     LCD_Write(dPort | 0x03);
  41              		.loc 1 267 0
  42 0006 40F00300 		orr	r0, r0, #3
  43 000a FFF7FEFF 		bl	LCD_Write
  44              	.LVL2:
 268:Cypress_DevBoard.c ****     LCD_Write(LCD_Read() | E);
  45              		.loc 1 268 0
  46 000e FFF7FEFF 		bl	LCD_Read
  47              	.LVL3:
  48 0012 40F00800 		orr	r0, r0, #8
  49 0016 FFF7FEFF 		bl	LCD_Write
  50              	.LVL4:
 269:Cypress_DevBoard.c ****     CyDelay(2);    // 2
  51              		.loc 1 269 0
  52 001a 0220     		movs	r0, #2
  53 001c FFF7FEFF 		bl	CyDelay
  54              	.LVL5:
 270:Cypress_DevBoard.c ****     LCD_Write(LCD_Read() & ~E);
  55              		.loc 1 270 0
  56 0020 FFF7FEFF 		bl	LCD_Read
  57              	.LVL6:
  58 0024 20F00800 		bic	r0, r0, #8
  59 0028 FFF7FEFF 		bl	LCD_Write
  60              	.LVL7:
  61 002c 08BD     		pop	{r3, pc}
  62              		.cfi_endproc
  63              	.LFE74:
  64              		.size	LCD_WriteControlNibble, .-LCD_WriteControlNibble
  65 002e 00BF     		.section	.text.LCD_WriteControl,"ax",%progbits
  66              		.align	2
  67              		.global	LCD_WriteControl
  68              		.thumb
  69              		.thumb_func
  70              		.type	LCD_WriteControl, %function
  71              	LCD_WriteControl:
  72              	.LFB72:
ARM GAS  C:\Users\salma\AppData\Local\Temp\ccqSBHx1.s 			page 7


 233:Cypress_DevBoard.c ****     static unsigned char nibble;
  73              		.loc 1 233 0
  74              		.cfi_startproc
  75              		@ args = 0, pretend = 0, frame = 0
  76              		@ frame_needed = 0, uses_anonymous_args = 0
  77              	.LVL8:
  78 0000 10B5     		push	{r4, lr}
  79              		.cfi_def_cfa_offset 8
  80              		.cfi_offset 4, -8
  81              		.cfi_offset 14, -4
  82 0002 0446     		mov	r4, r0
 240:Cypress_DevBoard.c ****     nibble = cByte & LCD_NIBBLE_MASK;
  83              		.loc 1 240 0
  84 0004 0009     		lsrs	r0, r0, #4
  85              	.LVL9:
  86 0006 FFF7FEFF 		bl	LCD_WriteControlNibble
  87              	.LVL10:
 244:Cypress_DevBoard.c ****     //delay_ms(5); // 5
  88              		.loc 1 244 0
  89 000a 04F00F00 		and	r0, r4, #15
  90 000e FFF7FEFF 		bl	LCD_WriteControlNibble
  91              	.LVL11:
  92 0012 10BD     		pop	{r4, pc}
  93              		.cfi_endproc
  94              	.LFE72:
  95              		.size	LCD_WriteControl, .-LCD_WriteControl
  96              		.section	.text.LCD_ClearDisplay,"ax",%progbits
  97              		.align	2
  98              		.global	LCD_ClearDisplay
  99              		.thumb
 100              		.thumb_func
 101              		.type	LCD_ClearDisplay, %function
 102              	LCD_ClearDisplay:
 103              	.LFB64:
  36:Cypress_DevBoard.c ****     LCD_WriteControl(LCD_CLEAR_DISPLAY);
 104              		.loc 1 36 0
 105              		.cfi_startproc
 106              		@ args = 0, pretend = 0, frame = 0
 107              		@ frame_needed = 0, uses_anonymous_args = 0
 108 0000 08B5     		push	{r3, lr}
 109              		.cfi_def_cfa_offset 8
 110              		.cfi_offset 3, -8
 111              		.cfi_offset 14, -4
  37:Cypress_DevBoard.c ****     CyDelay(2);
 112              		.loc 1 37 0
 113 0002 0120     		movs	r0, #1
 114 0004 FFF7FEFF 		bl	LCD_WriteControl
 115              	.LVL12:
  38:Cypress_DevBoard.c **** }
 116              		.loc 1 38 0
 117 0008 0220     		movs	r0, #2
 118 000a FFF7FEFF 		bl	CyDelay
 119              	.LVL13:
 120 000e 08BD     		pop	{r3, pc}
 121              		.cfi_endproc
 122              	.LFE64:
 123              		.size	LCD_ClearDisplay, .-LCD_ClearDisplay
ARM GAS  C:\Users\salma\AppData\Local\Temp\ccqSBHx1.s 			page 8


 124              		.section	.text.LCD_Position,"ax",%progbits
 125              		.align	2
 126              		.global	LCD_Position
 127              		.thumb
 128              		.thumb_func
 129              		.type	LCD_Position, %function
 130              	LCD_Position:
 131              	.LFB65:
  40:Cypress_DevBoard.c **** /*
 132              		.loc 1 40 0
 133              		.cfi_startproc
 134              		@ args = 0, pretend = 0, frame = 0
 135              		@ frame_needed = 0, uses_anonymous_args = 0
 136              	.LVL14:
 137 0000 08B5     		push	{r3, lr}
 138              		.cfi_def_cfa_offset 8
 139              		.cfi_offset 3, -8
 140              		.cfi_offset 14, -4
  47:Cypress_DevBoard.c **** 
 141              		.loc 1 47 0
 142 0002 00F00300 		and	r0, r0, #3
 143              	.LVL15:
  49:Cypress_DevBoard.c ****         case 0:
 144              		.loc 1 49 0
 145 0006 0328     		cmp	r0, #3
 146 0008 1ED8     		bhi	.L7
 147 000a DFE800F0 		tbb	[pc, r0]
 148              	.L10:
 149 000e 02       		.byte	(.L9-.L10)/2
 150 000f 09       		.byte	(.L11-.L10)/2
 151 0010 10       		.byte	(.L12-.L10)/2
 152 0011 17       		.byte	(.L13-.L10)/2
 153              		.p2align 1
 154              	.L9:
  51:Cypress_DevBoard.c ****             break;
 155              		.loc 1 51 0
 156 0012 01F00F00 		and	r0, r1, #15
 157              	.LVL16:
 158 0016 40F08000 		orr	r0, r0, #128
 159 001a FFF7FEFF 		bl	LCD_WriteControl
 160              	.LVL17:
  52:Cypress_DevBoard.c ****         case 1:
 161              		.loc 1 52 0
 162 001e 08BD     		pop	{r3, pc}
 163              	.LVL18:
 164              	.L11:
  54:Cypress_DevBoard.c ****             break;
 165              		.loc 1 54 0
 166 0020 01F00F00 		and	r0, r1, #15
 167              	.LVL19:
 168 0024 4038     		subs	r0, r0, #64
 169 0026 C0B2     		uxtb	r0, r0
 170 0028 FFF7FEFF 		bl	LCD_WriteControl
 171              	.LVL20:
  55:Cypress_DevBoard.c ****         case 2:
 172              		.loc 1 55 0
 173 002c 08BD     		pop	{r3, pc}
ARM GAS  C:\Users\salma\AppData\Local\Temp\ccqSBHx1.s 			page 9


 174              	.LVL21:
 175              	.L12:
  57:Cypress_DevBoard.c ****             break;
 176              		.loc 1 57 0
 177 002e 01F00F00 		and	r0, r1, #15
 178              	.LVL22:
 179 0032 6C38     		subs	r0, r0, #108
 180 0034 C0B2     		uxtb	r0, r0
 181 0036 FFF7FEFF 		bl	LCD_WriteControl
 182              	.LVL23:
  58:Cypress_DevBoard.c ****         case 3:
 183              		.loc 1 58 0
 184 003a 08BD     		pop	{r3, pc}
 185              	.LVL24:
 186              	.L13:
  60:Cypress_DevBoard.c ****             break;
 187              		.loc 1 60 0
 188 003c 01F00F00 		and	r0, r1, #15
 189              	.LVL25:
 190 0040 2C38     		subs	r0, r0, #44
 191 0042 C0B2     		uxtb	r0, r0
 192 0044 FFF7FEFF 		bl	LCD_WriteControl
 193              	.LVL26:
 194              	.L7:
 195 0048 08BD     		pop	{r3, pc}
 196              		.cfi_endproc
 197              	.LFE65:
 198              		.size	LCD_Position, .-LCD_Position
 199 004a 00BF     		.section	.text.init_LCD,"ax",%progbits
 200              		.align	2
 201              		.global	init_LCD
 202              		.thumb
 203              		.thumb_func
 204              		.type	init_LCD, %function
 205              	init_LCD:
 206              	.LFB63:
  11:Cypress_DevBoard.c ****     LCD_Write(0xFC);
 207              		.loc 1 11 0
 208              		.cfi_startproc
 209              		@ args = 0, pretend = 0, frame = 0
 210              		@ frame_needed = 0, uses_anonymous_args = 0
 211 0000 08B5     		push	{r3, lr}
 212              		.cfi_def_cfa_offset 8
 213              		.cfi_offset 3, -8
 214              		.cfi_offset 14, -4
  12:Cypress_DevBoard.c ****     LCD_Write(0xFF);
 215              		.loc 1 12 0
 216 0002 FC20     		movs	r0, #252
 217 0004 FFF7FEFF 		bl	LCD_Write
 218              	.LVL27:
  13:Cypress_DevBoard.c ****     LCD_Write(LCD_Read() & (~0xFC));
 219              		.loc 1 13 0
 220 0008 FF20     		movs	r0, #255
 221 000a FFF7FEFF 		bl	LCD_Write
 222              	.LVL28:
  14:Cypress_DevBoard.c **** 
 223              		.loc 1 14 0
ARM GAS  C:\Users\salma\AppData\Local\Temp\ccqSBHx1.s 			page 10


 224 000e FFF7FEFF 		bl	LCD_Read
 225              	.LVL29:
 226 0012 20F0FC00 		bic	r0, r0, #252
 227 0016 FFF7FEFF 		bl	LCD_Write
 228              	.LVL30:
  17:Cypress_DevBoard.c ****     LCD_WriteControlNibble(LCD_DISPLAY_8_BIT_INIT);    /* Selects 8-bit mode */
 229              		.loc 1 17 0
 230 001a 5020     		movs	r0, #80
 231 001c FFF7FEFF 		bl	CyDelay
 232              	.LVL31:
  18:Cypress_DevBoard.c ****     CyDelay(10);                                                         /* Delay 5 ms */
 233              		.loc 1 18 0
 234 0020 0320     		movs	r0, #3
 235 0022 FFF7FEFF 		bl	LCD_WriteControlNibble
 236              	.LVL32:
  19:Cypress_DevBoard.c ****     LCD_WriteControlNibble(LCD_DISPLAY_8_BIT_INIT);    /* Selects 8-bit mode */
 237              		.loc 1 19 0
 238 0026 0A20     		movs	r0, #10
 239 0028 FFF7FEFF 		bl	CyDelay
 240              	.LVL33:
  20:Cypress_DevBoard.c ****     CyDelay(30);                                                        /* Delay 15 ms */
 241              		.loc 1 20 0
 242 002c 0320     		movs	r0, #3
 243 002e FFF7FEFF 		bl	LCD_WriteControlNibble
 244              	.LVL34:
  21:Cypress_DevBoard.c ****     LCD_WriteControlNibble(LCD_DISPLAY_8_BIT_INIT);    /* Selects 8-bit mode */
 245              		.loc 1 21 0
 246 0032 1E20     		movs	r0, #30
 247 0034 FFF7FEFF 		bl	CyDelay
 248              	.LVL35:
  22:Cypress_DevBoard.c ****     CyDelay(2);                                                         /* Delay 1 ms */
 249              		.loc 1 22 0
 250 0038 0320     		movs	r0, #3
 251 003a FFF7FEFF 		bl	LCD_WriteControlNibble
 252              	.LVL36:
  23:Cypress_DevBoard.c ****     LCD_WriteControlNibble(LCD_DISPLAY_4_BIT_INIT);    /* Selects 4-bit mode */
 253              		.loc 1 23 0
 254 003e 0220     		movs	r0, #2
 255 0040 FFF7FEFF 		bl	CyDelay
 256              	.LVL37:
  24:Cypress_DevBoard.c ****     CyDelay(10);                                                         /* Delay 5 ms */
 257              		.loc 1 24 0
 258 0044 0220     		movs	r0, #2
 259 0046 FFF7FEFF 		bl	LCD_WriteControlNibble
 260              	.LVL38:
  25:Cypress_DevBoard.c **** 
 261              		.loc 1 25 0
 262 004a 0A20     		movs	r0, #10
 263 004c FFF7FEFF 		bl	CyDelay
 264              	.LVL39:
  27:Cypress_DevBoard.c ****     LCD_WriteControl(LCD_DISPLAY_CURSOR_ON);      /* Turn Display, Cursor ON */
 265              		.loc 1 27 0
 266 0050 0620     		movs	r0, #6
 267 0052 FFF7FEFF 		bl	LCD_WriteControl
 268              	.LVL40:
  28:Cypress_DevBoard.c ****     LCD_WriteControl(LCD_DISPLAY_2_LINES_5x10);   /* 2 Lines by 5x10 Characters */
 269              		.loc 1 28 0
ARM GAS  C:\Users\salma\AppData\Local\Temp\ccqSBHx1.s 			page 11


 270 0056 0E20     		movs	r0, #14
 271 0058 FFF7FEFF 		bl	LCD_WriteControl
 272              	.LVL41:
  29:Cypress_DevBoard.c ****     LCD_WriteControl(LCD_DISPLAY_CURSOR_OFF);     /* Turn Display, Cursor OFF */
 273              		.loc 1 29 0
 274 005c 2C20     		movs	r0, #44
 275 005e FFF7FEFF 		bl	LCD_WriteControl
 276              	.LVL42:
  30:Cypress_DevBoard.c ****     LCD_WriteControl(LCD_CLEAR_DISPLAY);          /* Clear LCD Screen */
 277              		.loc 1 30 0
 278 0062 0820     		movs	r0, #8
 279 0064 FFF7FEFF 		bl	LCD_WriteControl
 280              	.LVL43:
  31:Cypress_DevBoard.c ****     LCD_WriteControl(LCD_DISPLAY_ON_CURSOR_OFF);  /* Turn Display ON, Cursor OFF */
 281              		.loc 1 31 0
 282 0068 0120     		movs	r0, #1
 283 006a FFF7FEFF 		bl	LCD_WriteControl
 284              	.LVL44:
  32:Cypress_DevBoard.c ****     LCD_WriteControl(LCD_RESET_CURSOR_POSITION);  /* Set Cursor to 0,0 */
 285              		.loc 1 32 0
 286 006e 0C20     		movs	r0, #12
 287 0070 FFF7FEFF 		bl	LCD_WriteControl
 288              	.LVL45:
  33:Cypress_DevBoard.c ****     CyDelay(10);
 289              		.loc 1 33 0
 290 0074 0320     		movs	r0, #3
 291 0076 FFF7FEFF 		bl	LCD_WriteControl
 292              	.LVL46:
  34:Cypress_DevBoard.c **** }
 293              		.loc 1 34 0
 294 007a 0A20     		movs	r0, #10
 295 007c FFF7FEFF 		bl	CyDelay
 296              	.LVL47:
 297 0080 08BD     		pop	{r3, pc}
 298              		.cfi_endproc
 299              	.LFE63:
 300              		.size	init_LCD, .-init_LCD
 301 0082 00BF     		.section	.text.LCD_WriteDataNibble,"ax",%progbits
 302              		.align	2
 303              		.global	LCD_WriteDataNibble
 304              		.thumb
 305              		.thumb_func
 306              		.type	LCD_WriteDataNibble, %function
 307              	LCD_WriteDataNibble:
 308              	.LFB75:
 271:Cypress_DevBoard.c **** }
 272:Cypress_DevBoard.c **** void LCD_WriteDataNibble(unsigned char nibble) {
 309              		.loc 1 272 0
 310              		.cfi_startproc
 311              		@ args = 0, pretend = 0, frame = 0
 312              		@ frame_needed = 0, uses_anonymous_args = 0
 313              	.LVL48:
 314 0000 08B5     		push	{r3, lr}
 315              		.cfi_def_cfa_offset 8
 316              		.cfi_offset 3, -8
 317              		.cfi_offset 14, -4
 273:Cypress_DevBoard.c ****     static unsigned char dPort = 0x00;
ARM GAS  C:\Users\salma\AppData\Local\Temp\ccqSBHx1.s 			page 12


 274:Cypress_DevBoard.c **** 
 275:Cypress_DevBoard.c ****     dPort = (nibble << LCD_NIBBLE_SHIFT);
 318              		.loc 1 275 0
 319 0002 0001     		lsls	r0, r0, #4
 320              	.LVL49:
 321 0004 C0B2     		uxtb	r0, r0
 276:Cypress_DevBoard.c ****     dPort |= RS;
 277:Cypress_DevBoard.c **** 
 278:Cypress_DevBoard.c ****     LCD_Write(dPort | 0x03);
 322              		.loc 1 278 0
 323 0006 40F00700 		orr	r0, r0, #7
 324 000a FFF7FEFF 		bl	LCD_Write
 325              	.LVL50:
 279:Cypress_DevBoard.c ****     LCD_Write(LCD_Read() | E);
 326              		.loc 1 279 0
 327 000e FFF7FEFF 		bl	LCD_Read
 328              	.LVL51:
 329 0012 40F00800 		orr	r0, r0, #8
 330 0016 FFF7FEFF 		bl	LCD_Write
 331              	.LVL52:
 280:Cypress_DevBoard.c ****     CyDelay(2);    // 2
 332              		.loc 1 280 0
 333 001a 0220     		movs	r0, #2
 334 001c FFF7FEFF 		bl	CyDelay
 335              	.LVL53:
 281:Cypress_DevBoard.c ****     LCD_Write(LCD_Read() & ~E);
 336              		.loc 1 281 0
 337 0020 FFF7FEFF 		bl	LCD_Read
 338              	.LVL54:
 339 0024 20F00800 		bic	r0, r0, #8
 340 0028 FFF7FEFF 		bl	LCD_Write
 341              	.LVL55:
 342 002c 08BD     		pop	{r3, pc}
 343              		.cfi_endproc
 344              	.LFE75:
 345              		.size	LCD_WriteDataNibble, .-LCD_WriteDataNibble
 346 002e 00BF     		.section	.text.LCD_WriteData,"ax",%progbits
 347              		.align	2
 348              		.global	LCD_WriteData
 349              		.thumb
 350              		.thumb_func
 351              		.type	LCD_WriteData, %function
 352              	LCD_WriteData:
 353              	.LFB73:
 247:Cypress_DevBoard.c ****     static unsigned char nibble;
 354              		.loc 1 247 0
 355              		.cfi_startproc
 356              		@ args = 0, pretend = 0, frame = 0
 357              		@ frame_needed = 0, uses_anonymous_args = 0
 358              	.LVL56:
 359 0000 10B5     		push	{r4, lr}
 360              		.cfi_def_cfa_offset 8
 361              		.cfi_offset 4, -8
 362              		.cfi_offset 14, -4
 363 0002 0446     		mov	r4, r0
 254:Cypress_DevBoard.c ****     nibble = dByte & LCD_NIBBLE_MASK;
 364              		.loc 1 254 0
ARM GAS  C:\Users\salma\AppData\Local\Temp\ccqSBHx1.s 			page 13


 365 0004 0009     		lsrs	r0, r0, #4
 366              	.LVL57:
 367 0006 FFF7FEFF 		bl	LCD_WriteDataNibble
 368              	.LVL58:
 258:Cypress_DevBoard.c ****     //delay_ms(5); // 5
 369              		.loc 1 258 0
 370 000a 04F00F00 		and	r0, r4, #15
 371 000e FFF7FEFF 		bl	LCD_WriteDataNibble
 372              	.LVL59:
 373 0012 10BD     		pop	{r4, pc}
 374              		.cfi_endproc
 375              	.LFE73:
 376              		.size	LCD_WriteData, .-LCD_WriteData
 377              		.section	.text.LCD_PrintString,"ax",%progbits
 378              		.align	2
 379              		.global	LCD_PrintString
 380              		.thumb
 381              		.thumb_func
 382              		.type	LCD_PrintString, %function
 383              	LCD_PrintString:
 384              	.LFB70:
 210:Cypress_DevBoard.c **** /*
 385              		.loc 1 210 0
 386              		.cfi_startproc
 387              		@ args = 0, pretend = 0, frame = 0
 388              		@ frame_needed = 0, uses_anonymous_args = 0
 389              	.LVL60:
 390 0000 10B5     		push	{r4, lr}
 391              		.cfi_def_cfa_offset 8
 392              		.cfi_offset 4, -8
 393              		.cfi_offset 14, -4
 394 0002 0446     		mov	r4, r0
 395              	.LVL61:
 219:Cypress_DevBoard.c ****         LCD_WriteData(*c);
 396              		.loc 1 219 0
 397 0004 02E0     		b	.L22
 398              	.LVL62:
 399              	.L24:
 220:Cypress_DevBoard.c ****         c++;
 400              		.loc 1 220 0
 401 0006 FFF7FEFF 		bl	LCD_WriteData
 402              	.LVL63:
 221:Cypress_DevBoard.c ****     }
 403              		.loc 1 221 0
 404 000a 0134     		adds	r4, r4, #1
 405              	.LVL64:
 406              	.L22:
 219:Cypress_DevBoard.c ****         LCD_WriteData(*c);
 407              		.loc 1 219 0
 408 000c 14B1     		cbz	r4, .L21
 219:Cypress_DevBoard.c ****         LCD_WriteData(*c);
 409              		.loc 1 219 0 is_stmt 0 discriminator 1
 410 000e 2078     		ldrb	r0, [r4]	@ zero_extendqisi2
 411 0010 0028     		cmp	r0, #0
 412 0012 F8D1     		bne	.L24
 413              	.L21:
 414 0014 10BD     		pop	{r4, pc}
ARM GAS  C:\Users\salma\AppData\Local\Temp\ccqSBHx1.s 			page 14


 415              		.cfi_endproc
 416              	.LFE70:
 417              		.size	LCD_PrintString, .-LCD_PrintString
 418 0016 00BF     		.section	.text.LCD_PutChar,"ax",%progbits
 419              		.align	2
 420              		.global	LCD_PutChar
 421              		.thumb
 422              		.thumb_func
 423              		.type	LCD_PutChar, %function
 424              	LCD_PutChar:
 425              	.LFB71:
 224:Cypress_DevBoard.c **** /*
 426              		.loc 1 224 0 is_stmt 1
 427              		.cfi_startproc
 428              		@ args = 0, pretend = 0, frame = 0
 429              		@ frame_needed = 0, uses_anonymous_args = 0
 430              	.LVL65:
 431 0000 08B5     		push	{r3, lr}
 432              		.cfi_def_cfa_offset 8
 433              		.cfi_offset 3, -8
 434              		.cfi_offset 14, -4
 231:Cypress_DevBoard.c **** }
 435              		.loc 1 231 0
 436 0002 FFF7FEFF 		bl	LCD_WriteData
 437              	.LVL66:
 438 0006 08BD     		pop	{r3, pc}
 439              		.cfi_endproc
 440              	.LFE71:
 441              		.size	LCD_PutChar, .-LCD_PutChar
 442              		.section	.text.LCD_PrintHex8,"ax",%progbits
 443              		.align	2
 444              		.global	LCD_PrintHex8
 445              		.thumb
 446              		.thumb_func
 447              		.type	LCD_PrintHex8, %function
 448              	LCD_PrintHex8:
 449              	.LFB66:
  66:Cypress_DevBoard.c **** /*
 450              		.loc 1 66 0
 451              		.cfi_startproc
 452              		@ args = 0, pretend = 0, frame = 0
 453              		@ frame_needed = 0, uses_anonymous_args = 0
 454              	.LVL67:
 455 0000 10B5     		push	{r4, lr}
 456              		.cfi_def_cfa_offset 8
 457              		.cfi_offset 4, -8
 458              		.cfi_offset 14, -4
 459 0002 0446     		mov	r4, r0
  79:Cypress_DevBoard.c ****         aux = hex8;
 460              		.loc 1 79 0
 461 0004 0022     		movs	r2, #0
 462 0006 124B     		ldr	r3, .L35
 463 0008 1A70     		strb	r2, [r3]
 464 000a 1CE0     		b	.L29
 465              	.LVL68:
 466              	.L33:
  80:Cypress_DevBoard.c ****         if(i < length) {
ARM GAS  C:\Users\salma\AppData\Local\Temp\ccqSBHx1.s 			page 15


 467              		.loc 1 80 0
 468 000c 104A     		ldr	r2, .L35
 469 000e 5460     		str	r4, [r2, #4]
  81:Cypress_DevBoard.c ****             aux = (aux >> shift);
 470              		.loc 1 81 0
 471 0010 3BB9     		cbnz	r3, .L30
  82:Cypress_DevBoard.c ****             shift -= 4;
 472              		.loc 1 82 0
 473 0012 104A     		ldr	r2, .L35+4
 474 0014 1378     		ldrb	r3, [r2]	@ zero_extendqisi2
 475 0016 24FA03F0 		lsr	r0, r4, r3
 476 001a 0D49     		ldr	r1, .L35
 477 001c 4860     		str	r0, [r1, #4]
  83:Cypress_DevBoard.c ****         }
 478              		.loc 1 83 0
 479 001e 043B     		subs	r3, r3, #4
 480 0020 1370     		strb	r3, [r2]
 481              	.L30:
  85:Cypress_DevBoard.c ****         if(aux < 10) {
 482              		.loc 1 85 0
 483 0022 0B4B     		ldr	r3, .L35
 484 0024 5868     		ldr	r0, [r3, #4]
 485 0026 00F00F00 		and	r0, r0, #15
 486 002a 5860     		str	r0, [r3, #4]
  86:Cypress_DevBoard.c ****             LCD_PutChar(aux + LCD_ZERO_CHAR_ASCII);
 487              		.loc 1 86 0
 488 002c 0928     		cmp	r0, #9
 489 002e 03D8     		bhi	.L31
  87:Cypress_DevBoard.c ****         }
 490              		.loc 1 87 0
 491 0030 3030     		adds	r0, r0, #48
 492 0032 FFF7FEFF 		bl	LCD_PutChar
 493              	.LVL69:
 494 0036 02E0     		b	.L32
 495              	.L31:
  90:Cypress_DevBoard.c ****         }
 496              		.loc 1 90 0
 497 0038 3730     		adds	r0, r0, #55
 498 003a FFF7FEFF 		bl	LCD_PutChar
 499              	.LVL70:
 500              	.L32:
  79:Cypress_DevBoard.c ****         aux = hex8;
 501              		.loc 1 79 0 discriminator 2
 502 003e 044A     		ldr	r2, .L35
 503 0040 1378     		ldrb	r3, [r2]	@ zero_extendqisi2
 504 0042 0133     		adds	r3, r3, #1
 505 0044 1370     		strb	r3, [r2]
 506              	.L29:
  79:Cypress_DevBoard.c ****         aux = hex8;
 507              		.loc 1 79 0 is_stmt 0 discriminator 1
 508 0046 024B     		ldr	r3, .L35
 509 0048 1B78     		ldrb	r3, [r3]	@ zero_extendqisi2
 510 004a 012B     		cmp	r3, #1
 511 004c DED9     		bls	.L33
  93:Cypress_DevBoard.c **** void LCD_PrintHex16(unsigned int hex16) {    // Función de escritura de número hexadecimal de 16 
 512              		.loc 1 93 0 is_stmt 1
 513 004e 10BD     		pop	{r4, pc}
ARM GAS  C:\Users\salma\AppData\Local\Temp\ccqSBHx1.s 			page 16


 514              	.LVL71:
 515              	.L36:
 516              		.align	2
 517              	.L35:
 518 0050 00000000 		.word	.LANCHOR0
 519 0054 00000000 		.word	.LANCHOR1
 520              		.cfi_endproc
 521              	.LFE66:
 522              		.size	LCD_PrintHex8, .-LCD_PrintHex8
 523              		.section	.text.LCD_PrintHex16,"ax",%progbits
 524              		.align	2
 525              		.global	LCD_PrintHex16
 526              		.thumb
 527              		.thumb_func
 528              		.type	LCD_PrintHex16, %function
 529              	LCD_PrintHex16:
 530              	.LFB67:
  94:Cypress_DevBoard.c **** /*
 531              		.loc 1 94 0
 532              		.cfi_startproc
 533              		@ args = 0, pretend = 0, frame = 0
 534              		@ frame_needed = 0, uses_anonymous_args = 0
 535              	.LVL72:
 536 0000 10B5     		push	{r4, lr}
 537              		.cfi_def_cfa_offset 8
 538              		.cfi_offset 4, -8
 539              		.cfi_offset 14, -4
 540 0002 0446     		mov	r4, r0
 107:Cypress_DevBoard.c ****         aux = hex16;
 541              		.loc 1 107 0
 542 0004 0022     		movs	r2, #0
 543 0006 134B     		ldr	r3, .L44
 544 0008 1A72     		strb	r2, [r3, #8]
 545 000a 1DE0     		b	.L38
 546              	.LVL73:
 547              	.L42:
 108:Cypress_DevBoard.c ****         if(i < length) {
 548              		.loc 1 108 0
 549 000c 114A     		ldr	r2, .L44
 550 000e D460     		str	r4, [r2, #12]
 109:Cypress_DevBoard.c ****             aux = (aux >> shift);
 551              		.loc 1 109 0
 552 0010 022B     		cmp	r3, #2
 553 0012 07D8     		bhi	.L39
 110:Cypress_DevBoard.c ****             shift -= 4;
 554              		.loc 1 110 0
 555 0014 104A     		ldr	r2, .L44+4
 556 0016 5378     		ldrb	r3, [r2, #1]	@ zero_extendqisi2
 557 0018 24FA03F0 		lsr	r0, r4, r3
 558 001c 0D49     		ldr	r1, .L44
 559 001e C860     		str	r0, [r1, #12]
 111:Cypress_DevBoard.c ****         }
 560              		.loc 1 111 0
 561 0020 043B     		subs	r3, r3, #4
 562 0022 5370     		strb	r3, [r2, #1]
 563              	.L39:
 113:Cypress_DevBoard.c ****         if(aux < 10) {
ARM GAS  C:\Users\salma\AppData\Local\Temp\ccqSBHx1.s 			page 17


 564              		.loc 1 113 0
 565 0024 0B4B     		ldr	r3, .L44
 566 0026 D868     		ldr	r0, [r3, #12]
 567 0028 00F00F00 		and	r0, r0, #15
 568 002c D860     		str	r0, [r3, #12]
 114:Cypress_DevBoard.c ****             LCD_PutChar(aux + LCD_ZERO_CHAR_ASCII);
 569              		.loc 1 114 0
 570 002e 0928     		cmp	r0, #9
 571 0030 03D8     		bhi	.L40
 115:Cypress_DevBoard.c ****         }
 572              		.loc 1 115 0
 573 0032 3030     		adds	r0, r0, #48
 574 0034 FFF7FEFF 		bl	LCD_PutChar
 575              	.LVL74:
 576 0038 02E0     		b	.L41
 577              	.L40:
 118:Cypress_DevBoard.c ****         }
 578              		.loc 1 118 0
 579 003a 3730     		adds	r0, r0, #55
 580 003c FFF7FEFF 		bl	LCD_PutChar
 581              	.LVL75:
 582              	.L41:
 107:Cypress_DevBoard.c ****         aux = hex16;
 583              		.loc 1 107 0 discriminator 2
 584 0040 044A     		ldr	r2, .L44
 585 0042 137A     		ldrb	r3, [r2, #8]	@ zero_extendqisi2
 586 0044 0133     		adds	r3, r3, #1
 587 0046 1372     		strb	r3, [r2, #8]
 588              	.L38:
 107:Cypress_DevBoard.c ****         aux = hex16;
 589              		.loc 1 107 0 is_stmt 0 discriminator 1
 590 0048 024B     		ldr	r3, .L44
 591 004a 1B7A     		ldrb	r3, [r3, #8]	@ zero_extendqisi2
 592 004c 032B     		cmp	r3, #3
 593 004e DDD9     		bls	.L42
 121:Cypress_DevBoard.c **** void LCD_PrintHex(unsigned int hex) {    // Función de escritura de número hexadecimal hasta de 1
 594              		.loc 1 121 0 is_stmt 1
 595 0050 10BD     		pop	{r4, pc}
 596              	.LVL76:
 597              	.L45:
 598 0052 00BF     		.align	2
 599              	.L44:
 600 0054 00000000 		.word	.LANCHOR0
 601 0058 00000000 		.word	.LANCHOR1
 602              		.cfi_endproc
 603              	.LFE67:
 604              		.size	LCD_PrintHex16, .-LCD_PrintHex16
 605              		.section	.text.LCD_PrintHex,"ax",%progbits
 606              		.align	2
 607              		.global	LCD_PrintHex
 608              		.thumb
 609              		.thumb_func
 610              		.type	LCD_PrintHex, %function
 611              	LCD_PrintHex:
 612              	.LFB68:
 122:Cypress_DevBoard.c **** /*
 613              		.loc 1 122 0
ARM GAS  C:\Users\salma\AppData\Local\Temp\ccqSBHx1.s 			page 18


 614              		.cfi_startproc
 615              		@ args = 0, pretend = 0, frame = 0
 616              		@ frame_needed = 0, uses_anonymous_args = 0
 617              	.LVL77:
 618 0000 10B5     		push	{r4, lr}
 619              		.cfi_def_cfa_offset 8
 620              		.cfi_offset 4, -8
 621              		.cfi_offset 14, -4
 622 0002 0446     		mov	r4, r0
 135:Cypress_DevBoard.c ****         length = 3;
 623              		.loc 1 135 0
 624 0004 B0F5805F 		cmp	r0, #4096
 625 0008 05D3     		bcc	.L47
 136:Cypress_DevBoard.c ****         shift = 12;
 626              		.loc 1 136 0
 627 000a 204B     		ldr	r3, .L57
 628 000c 0322     		movs	r2, #3
 629 000e 1A74     		strb	r2, [r3, #16]
 137:Cypress_DevBoard.c ****     }
 630              		.loc 1 137 0
 631 0010 0C22     		movs	r2, #12
 632 0012 5A74     		strb	r2, [r3, #17]
 633 0014 13E0     		b	.L48
 634              	.L47:
 140:Cypress_DevBoard.c ****             length = 2;
 635              		.loc 1 140 0
 636 0016 FF28     		cmp	r0, #255
 637 0018 05D9     		bls	.L49
 141:Cypress_DevBoard.c ****             shift = 8;
 638              		.loc 1 141 0
 639 001a 1C4B     		ldr	r3, .L57
 640 001c 0222     		movs	r2, #2
 641 001e 1A74     		strb	r2, [r3, #16]
 142:Cypress_DevBoard.c ****         }
 642              		.loc 1 142 0
 643 0020 0822     		movs	r2, #8
 644 0022 5A74     		strb	r2, [r3, #17]
 645 0024 0BE0     		b	.L48
 646              	.L49:
 145:Cypress_DevBoard.c ****                 length = 1;
 647              		.loc 1 145 0
 648 0026 0F28     		cmp	r0, #15
 649 0028 05D9     		bls	.L50
 146:Cypress_DevBoard.c ****                 shift = 4;
 650              		.loc 1 146 0
 651 002a 184B     		ldr	r3, .L57
 652 002c 0122     		movs	r2, #1
 653 002e 1A74     		strb	r2, [r3, #16]
 147:Cypress_DevBoard.c ****             }
 654              		.loc 1 147 0
 655 0030 0422     		movs	r2, #4
 656 0032 5A74     		strb	r2, [r3, #17]
 657 0034 03E0     		b	.L48
 658              	.L50:
 150:Cypress_DevBoard.c ****                 shift = 0;
 659              		.loc 1 150 0
 660 0036 154B     		ldr	r3, .L57
ARM GAS  C:\Users\salma\AppData\Local\Temp\ccqSBHx1.s 			page 19


 661 0038 0022     		movs	r2, #0
 662 003a 1A74     		strb	r2, [r3, #16]
 151:Cypress_DevBoard.c ****             }
 663              		.loc 1 151 0
 664 003c 5A74     		strb	r2, [r3, #17]
 665              	.L48:
 156:Cypress_DevBoard.c ****         aux = hex;
 666              		.loc 1 156 0
 667 003e 0022     		movs	r2, #0
 668 0040 124B     		ldr	r3, .L57
 669 0042 9A74     		strb	r2, [r3, #18]
 670 0044 1CE0     		b	.L51
 671              	.LVL78:
 672              	.L55:
 157:Cypress_DevBoard.c ****         if(i < length) {
 673              		.loc 1 157 0
 674 0046 1149     		ldr	r1, .L57
 675 0048 4C61     		str	r4, [r1, #20]
 158:Cypress_DevBoard.c ****             aux = (aux >> shift);
 676              		.loc 1 158 0
 677 004a 9A42     		cmp	r2, r3
 678 004c 06D2     		bcs	.L52
 159:Cypress_DevBoard.c ****             shift -= 4;
 679              		.loc 1 159 0
 680 004e 0A46     		mov	r2, r1
 681 0050 4B7C     		ldrb	r3, [r1, #17]	@ zero_extendqisi2
 682 0052 24FA03F1 		lsr	r1, r4, r3
 683 0056 5161     		str	r1, [r2, #20]
 160:Cypress_DevBoard.c ****         }
 684              		.loc 1 160 0
 685 0058 043B     		subs	r3, r3, #4
 686 005a 5374     		strb	r3, [r2, #17]
 687              	.L52:
 162:Cypress_DevBoard.c ****         if(aux < 10) {
 688              		.loc 1 162 0
 689 005c 0B4B     		ldr	r3, .L57
 690 005e 5869     		ldr	r0, [r3, #20]
 691 0060 00F00F00 		and	r0, r0, #15
 692 0064 5861     		str	r0, [r3, #20]
 163:Cypress_DevBoard.c ****             LCD_PutChar(aux + LCD_ZERO_CHAR_ASCII);
 693              		.loc 1 163 0
 694 0066 0928     		cmp	r0, #9
 695 0068 03D8     		bhi	.L53
 164:Cypress_DevBoard.c ****         }
 696              		.loc 1 164 0
 697 006a 3030     		adds	r0, r0, #48
 698 006c FFF7FEFF 		bl	LCD_PutChar
 699              	.LVL79:
 700 0070 02E0     		b	.L54
 701              	.L53:
 167:Cypress_DevBoard.c ****         }
 702              		.loc 1 167 0
 703 0072 3730     		adds	r0, r0, #55
 704 0074 FFF7FEFF 		bl	LCD_PutChar
 705              	.LVL80:
 706              	.L54:
 156:Cypress_DevBoard.c ****         aux = hex;
ARM GAS  C:\Users\salma\AppData\Local\Temp\ccqSBHx1.s 			page 20


 707              		.loc 1 156 0 discriminator 2
 708 0078 044A     		ldr	r2, .L57
 709 007a 937C     		ldrb	r3, [r2, #18]	@ zero_extendqisi2
 710 007c 0133     		adds	r3, r3, #1
 711 007e 9374     		strb	r3, [r2, #18]
 712              	.L51:
 156:Cypress_DevBoard.c ****         aux = hex;
 713              		.loc 1 156 0 is_stmt 0 discriminator 1
 714 0080 024B     		ldr	r3, .L57
 715 0082 9A7C     		ldrb	r2, [r3, #18]	@ zero_extendqisi2
 716 0084 1B7C     		ldrb	r3, [r3, #16]	@ zero_extendqisi2
 717 0086 9A42     		cmp	r2, r3
 718 0088 DDD9     		bls	.L55
 170:Cypress_DevBoard.c **** void LCD_PrintNumber(unsigned long value) {    // Función de impresión de número decimal de 32 b
 719              		.loc 1 170 0 is_stmt 1
 720 008a 10BD     		pop	{r4, pc}
 721              	.LVL81:
 722              	.L58:
 723              		.align	2
 724              	.L57:
 725 008c 00000000 		.word	.LANCHOR0
 726              		.cfi_endproc
 727              	.LFE68:
 728              		.size	LCD_PrintHex, .-LCD_PrintHex
 729              		.section	.text.LCD_PrintNumber,"ax",%progbits
 730              		.align	2
 731              		.global	LCD_PrintNumber
 732              		.thumb
 733              		.thumb_func
 734              		.type	LCD_PrintNumber, %function
 735              	LCD_PrintNumber:
 736              	.LFB69:
 171:Cypress_DevBoard.c **** /*
 737              		.loc 1 171 0
 738              		.cfi_startproc
 739              		@ args = 0, pretend = 0, frame = 16
 740              		@ frame_needed = 0, uses_anonymous_args = 0
 741              	.LVL82:
 742 0000 10B5     		push	{r4, lr}
 743              		.cfi_def_cfa_offset 8
 744              		.cfi_offset 4, -8
 745              		.cfi_offset 14, -4
 746 0002 84B0     		sub	sp, sp, #16
 747              		.cfi_def_cfa_offset 24
 185:Cypress_DevBoard.c ****     digIndex--;
 748              		.loc 1 185 0
 749 0004 1F4A     		ldr	r2, .L65
 750 0006 9378     		ldrb	r3, [r2, #2]	@ zero_extendqisi2
 751 0008 04A9     		add	r1, sp, #16
 752 000a 1944     		add	r1, r1, r3
 753 000c 0024     		movs	r4, #0
 754 000e 01F80C4C 		strb	r4, [r1, #-12]
 186:Cypress_DevBoard.c **** 
 755              		.loc 1 186 0
 756 0012 013B     		subs	r3, r3, #1
 757 0014 9370     		strb	r3, [r2, #2]
 189:Cypress_DevBoard.c ****     /* Extraer dígito decimal, indexado por 'digIndex', desde 'value',
ARM GAS  C:\Users\salma\AppData\Local\Temp\ccqSBHx1.s 			page 21


 758              		.loc 1 189 0
 759 0016 12E0     		b	.L60
 760              	.L61:
 193:Cypress_DevBoard.c ****         number[digIndex] = tmpDigit;
 761              		.loc 1 193 0
 762 0018 1B4B     		ldr	r3, .L65+4
 763 001a A3FB0023 		umull	r2, r3, r3, r0
 764 001e DB08     		lsrs	r3, r3, #3
 765 0020 1C46     		mov	r4, r3
 766 0022 03EB8303 		add	r3, r3, r3, lsl #2
 767 0026 5A00     		lsls	r2, r3, #1
 768 0028 831A     		subs	r3, r0, r2
 769 002a 3033     		adds	r3, r3, #48
 194:Cypress_DevBoard.c ****         value /= LCD_TEN;
 770              		.loc 1 194 0
 771 002c 1549     		ldr	r1, .L65
 772 002e 8A78     		ldrb	r2, [r1, #2]	@ zero_extendqisi2
 773 0030 04A8     		add	r0, sp, #16
 774              	.LVL83:
 775 0032 1044     		add	r0, r0, r2
 776 0034 00F80C3C 		strb	r3, [r0, #-12]
 195:Cypress_DevBoard.c ****         digIndex--;
 777              		.loc 1 195 0
 778 0038 2046     		mov	r0, r4
 779              	.LVL84:
 196:Cypress_DevBoard.c ****     }
 780              		.loc 1 196 0
 781 003a 013A     		subs	r2, r2, #1
 782 003c 8A70     		strb	r2, [r1, #2]
 783              	.LVL85:
 784              	.L60:
 189:Cypress_DevBoard.c ****     /* Extraer dígito decimal, indexado por 'digIndex', desde 'value',
 785              		.loc 1 189 0
 786 003e 0928     		cmp	r0, #9
 787 0040 EAD8     		bhi	.L61
 202:Cypress_DevBoard.c ****     number[digIndex] = tmpDigit;
 788              		.loc 1 202 0
 789 0042 114B     		ldr	r3, .L65+4
 790 0044 A3FB0023 		umull	r2, r3, r3, r0
 791 0048 DB08     		lsrs	r3, r3, #3
 792 004a 03EB8303 		add	r3, r3, r3, lsl #2
 793 004e 5A00     		lsls	r2, r3, #1
 794 0050 831A     		subs	r3, r0, r2
 795 0052 3033     		adds	r3, r3, #48
 203:Cypress_DevBoard.c **** 
 796              		.loc 1 203 0
 797 0054 0B4A     		ldr	r2, .L65
 798 0056 9278     		ldrb	r2, [r2, #2]	@ zero_extendqisi2
 799 0058 04A9     		add	r1, sp, #16
 800 005a 0A44     		add	r2, r2, r1
 801 005c 02F80C3C 		strb	r3, [r2, #-12]
 205:Cypress_DevBoard.c ****         LCD_PutChar(number[digIndex]);
 802              		.loc 1 205 0
 803 0060 09E0     		b	.L62
 804              	.LVL86:
 805              	.L63:
 206:Cypress_DevBoard.c ****         digIndex++;
ARM GAS  C:\Users\salma\AppData\Local\Temp\ccqSBHx1.s 			page 22


 806              		.loc 1 206 0
 807 0062 04AA     		add	r2, sp, #16
 808 0064 1344     		add	r3, r3, r2
 809 0066 13F80C0C 		ldrb	r0, [r3, #-12]	@ zero_extendqisi2
 810 006a FFF7FEFF 		bl	LCD_PutChar
 811              	.LVL87:
 207:Cypress_DevBoard.c ****     }
 812              		.loc 1 207 0
 813 006e 054A     		ldr	r2, .L65
 814 0070 9378     		ldrb	r3, [r2, #2]	@ zero_extendqisi2
 815 0072 0133     		adds	r3, r3, #1
 816 0074 9370     		strb	r3, [r2, #2]
 817              	.L62:
 205:Cypress_DevBoard.c ****         LCD_PutChar(number[digIndex]);
 818              		.loc 1 205 0
 819 0076 034B     		ldr	r3, .L65
 820 0078 9B78     		ldrb	r3, [r3, #2]	@ zero_extendqisi2
 821 007a 092B     		cmp	r3, #9
 822 007c F1D9     		bls	.L63
 209:Cypress_DevBoard.c **** void LCD_PrintString(char *text) {    // Función de impresión en pantalla de cadena alfanumérica
 823              		.loc 1 209 0
 824 007e 04B0     		add	sp, sp, #16
 825              		.cfi_def_cfa_offset 8
 826              		@ sp needed
 827 0080 10BD     		pop	{r4, pc}
 828              	.L66:
 829 0082 00BF     		.align	2
 830              	.L65:
 831 0084 00000000 		.word	.LANCHOR1
 832 0088 CDCCCCCC 		.word	-858993459
 833              		.cfi_endproc
 834              	.LFE69:
 835              		.size	LCD_PrintNumber, .-LCD_PrintNumber
 836              		.data
 837              		.set	.LANCHOR1,. + 0
 838              		.type	shift.5689, %object
 839              		.size	shift.5689, 1
 840              	shift.5689:
 841 0000 08       		.byte	8
 842              		.type	shift.5699, %object
 843              		.size	shift.5699, 1
 844              	shift.5699:
 845 0001 0C       		.byte	12
 846              		.type	digIndex.5719, %object
 847              		.size	digIndex.5719, 1
 848              	digIndex.5719:
 849 0002 0A       		.byte	10
 850              		.bss
 851              		.align	2
 852              		.set	.LANCHOR0,. + 0
 853              		.type	i.5687, %object
 854              		.size	i.5687, 1
 855              	i.5687:
 856 0000 00       		.space	1
 857 0001 000000   		.space	3
 858              		.type	aux.5688, %object
 859              		.size	aux.5688, 4
ARM GAS  C:\Users\salma\AppData\Local\Temp\ccqSBHx1.s 			page 23


 860              	aux.5688:
 861 0004 00000000 		.space	4
 862              		.type	i.5697, %object
 863              		.size	i.5697, 1
 864              	i.5697:
 865 0008 00       		.space	1
 866 0009 000000   		.space	3
 867              		.type	aux.5698, %object
 868              		.size	aux.5698, 4
 869              	aux.5698:
 870 000c 00000000 		.space	4
 871              		.type	length.5710, %object
 872              		.size	length.5710, 1
 873              	length.5710:
 874 0010 00       		.space	1
 875              		.type	shift.5709, %object
 876              		.size	shift.5709, 1
 877              	shift.5709:
 878 0011 00       		.space	1
 879              		.type	i.5707, %object
 880              		.size	i.5707, 1
 881              	i.5707:
 882 0012 00       		.space	1
 883 0013 00       		.space	1
 884              		.type	aux.5708, %object
 885              		.size	aux.5708, 4
 886              	aux.5708:
 887 0014 00000000 		.space	4
 888              		.text
 889              	.Letext0:
 890              		.file 2 "c:\\program files (x86)\\cypress\\psoc creator\\4.2\\psoc creator\\import\\gnu\\arm\\5.4.
 891              		.file 3 "c:\\program files (x86)\\cypress\\psoc creator\\4.2\\psoc creator\\import\\gnu\\arm\\5.4.
 892              		.file 4 "Generated_Source\\PSoC5/CyLib.h"
 893              		.file 5 "Generated_Source\\PSoC5/core_cm3.h"